; Function Attrs: mustprogress nounwind uwtable
define hidden noundef ptr @_ZNK13SafePointNode12peek_operandEj(ptr noundef nonnull align 8 dereferenceable(81) %0, i32 noundef %1) local_unnamed_addr #2 align 2 {
  %3 = load ptr, ptr %0, align 8
  %4 = getelementptr inbounds i8, ptr %3, i64 144
  %5 = load ptr, ptr %4, align 8
  %6 = tail call noundef ptr %5(ptr noundef nonnull align 8 dereferenceable(81) %0) #15
  %7 = load ptr, ptr %0, align 8
  %8 = getelementptr inbounds i8, ptr %7, i64 144
  %9 = load ptr, ptr %8, align 8
  %10 = tail call noundef ptr %9(ptr noundef nonnull align 8 dereferenceable(81) %0) #15
  %11 = getelementptr inbounds i8, ptr %10, i64 32
  %12 = load i32, ptr %11, align 8
  %13 = xor i32 %1, -1
  %14 = add i32 %12, %13
  %15 = getelementptr inbounds i8, ptr %6, i64 16
  %16 = load i32, ptr %15, align 8
  %17 = add i32 %14, %16
  %18 = getelementptr inbounds i8, ptr %0, i64 8
  %19 = load ptr, ptr %18, align 8
  %20 = zext i32 %17 to i64
  %21 = getelementptr inbounds ptr, ptr %19, i64 %20
  %22 = load ptr, ptr %21, align 8
  ret ptr %22
}